target datalayout = "e-m:e-p270:32:32-p271:32:32-p272:64:64-i64:64-i128:128-f80:128-n8:16:32:64-S128"
target triple = "x86_64-pc-linux-gnu"

%struct.Vec_Str_t_ = type { i32, i32, ptr }
%struct.Abc_Frame_t_ = type { ptr, ptr, ptr, ptr, ptr, ptr, ptr, ptr, ptr, ptr, i32, i32, i32, i32, i32, ptr, float, float, i32, i32, ptr, ptr, ptr, double, double, ptr, ptr, ptr, ptr, ptr, ptr, ptr, ptr, ptr, ptr, ptr, ptr, float, ptr, i32, ptr, ptr, ptr, ptr, ptr, i32, i32, i32, i32, i32, i32, ptr, ptr, ptr, ptr, ptr, ptr, i32, i32, ptr, ptr, ptr, ptr, ptr, ptr, ptr, ptr, ptr, ptr, ptr, ptr, ptr, ptr, ptr, ptr, ptr, ptr, ptr, ptr, ptr, ptr, ptr, ptr, ptr, ptr, ptr, ptr, ptr, ptr }

@.str.6 = private unnamed_addr constant [12 x i8] c"(check-sat)\00", align 1
@.str.7 = private unnamed_addr constant [4 x i8] c"top\00", align 1
@.str.8 = private unnamed_addr constant [51 x i8] c"Something did not work out with the command \22%s\22.\0A\00", align 1
@.str.9 = private unnamed_addr constant [11 x i8] c"undecided\0A\00", align 1
@.str.10 = private unnamed_addr constant [7 x i8] c"unsat\0A\00", align 1
@.str.11 = private unnamed_addr constant [5 x i8] c"sat\0A\00", align 1
@stdout = external global ptr, align 8
@.str.12 = private unnamed_addr constant [7 x i8] c" \0A\09\0D()\00", align 1
@.str.13 = private unnamed_addr constant [10 x i8] c"get-value\00", align 1
@.str.14 = private unnamed_addr constant [79 x i8] c"ABC is expecting \22get-value\22 in a follow-up input of the satisfiable problem.\0A\00", align 1
@.str.15 = private unnamed_addr constant [83 x i8] c"ABC received a follow-up input for a problem that is not known to be satisfiable.\0A\00", align 1
@.str.16 = private unnamed_addr constant [7 x i8] c"() \0A\09\0D\00", align 1
@.str.17 = private unnamed_addr constant [81 x i8] c"ABC does not have a counter-example available to process a \22get-value\22 request.\0A\00", align 1

; Function Attrs: inlinehint nounwind uwtable
define internal void @Vec_StrFree(ptr noundef %0) #2 {
  %2 = alloca ptr, align 8
  store ptr %0, ptr %2, align 8, !tbaa !15
  %3 = load ptr, ptr %2, align 8, !tbaa !15
  %4 = getelementptr inbounds nuw %struct.Vec_Str_t_, ptr %3, i32 0, i32 2
  %5 = load ptr, ptr %4, align 8, !tbaa !22
  %6 = icmp ne ptr %5, null
  br i1 %6, label %7, label %13

7:                                                ; preds = %1
  %8 = load ptr, ptr %2, align 8, !tbaa !15
  %9 = getelementptr inbounds nuw %struct.Vec_Str_t_, ptr %8, i32 0, i32 2
  %10 = load ptr, ptr %9, align 8, !tbaa !22
  call void @free(ptr noundef %10) #10
  %11 = load ptr, ptr %2, align 8, !tbaa !15
  %12 = getelementptr inbounds nuw %struct.Vec_Str_t_, ptr %11, i32 0, i32 2
  store ptr null, ptr %12, align 8, !tbaa !22
  br label %14

13:                                               ; preds = %1
  br label %14

14:                                               ; preds = %13, %7
  %15 = load ptr, ptr %2, align 8, !tbaa !15
  %16 = icmp ne ptr %15, null
  br i1 %16, label %17, label %19

17:                                               ; preds = %14
  %18 = load ptr, ptr %2, align 8, !tbaa !15
  call void @free(ptr noundef %18) #10
  store ptr null, ptr %2, align 8, !tbaa !15
  br label %20

19:                                               ; preds = %14
  br label %20

20:                                               ; preds = %19, %17
  ret void
}

; Function Attrs: inlinehint nounwind uwtable
define internal i32 @Vec_StrSize(ptr noundef %0) #2 {
  %2 = alloca ptr, align 8
  store ptr %0, ptr %2, align 8, !tbaa !15
  %3 = load ptr, ptr %2, align 8, !tbaa !15
  %4 = getelementptr inbounds nuw %struct.Vec_Str_t_, ptr %3, i32 0, i32 1
  %5 = load i32, ptr %4, align 4, !tbaa !20
  ret i32 %5
}

; Function Attrs: inlinehint nounwind uwtable
define internal ptr @Vec_StrArray(ptr noundef %0) #2 {
  %2 = alloca ptr, align 8
  store ptr %0, ptr %2, align 8, !tbaa !15
  %3 = load ptr, ptr %2, align 8, !tbaa !15
  %4 = getelementptr inbounds nuw %struct.Vec_Str_t_, ptr %3, i32 0, i32 2
  %5 = load ptr, ptr %4, align 8, !tbaa !22
  ret ptr %5
}

; Function Attrs: nounwind uwtable
define i32 @Wlc_StdinProcessSmt(ptr noundef %0, ptr noundef %1) #0 {
  %3 = alloca i32, align 4
  %4 = alloca ptr, align 8
  %5 = alloca ptr, align 8
  %6 = alloca ptr, align 8
  %7 = alloca ptr, align 8
  %8 = alloca i32, align 4
  %9 = alloca ptr, align 8
  store ptr %0, ptr %4, align 8, !tbaa !48
  store ptr %1, ptr %5, align 8, !tbaa !3
  call void @llvm.lifetime.start.p0(i64 8, ptr %6) #10
  %10 = call ptr @Wlc_StdinCollectProblem(ptr noundef @.str.6)
  store ptr %10, ptr %6, align 8, !tbaa !15
  call void @llvm.lifetime.start.p0(i64 8, ptr %7) #10
  %11 = load ptr, ptr %6, align 8, !tbaa !15
  %12 = call ptr @Vec_StrArray(ptr noundef %11)
  %13 = load ptr, ptr %6, align 8, !tbaa !15
  %14 = call ptr @Vec_StrArray(ptr noundef %13)
  %15 = load ptr, ptr %6, align 8, !tbaa !15
  %16 = call i32 @Vec_StrSize(ptr noundef %15)
  %17 = sext i32 %16 to i64
  %18 = getelementptr inbounds i8, ptr %14, i64 %17
  %19 = call ptr @Wlc_ReadSmtBuffer(ptr noundef @.str.7, ptr noundef %12, ptr noundef %18, i32 noundef 0, i32 noundef 0)
  store ptr %19, ptr %7, align 8, !tbaa !25
  %20 = load ptr, ptr %6, align 8, !tbaa !15
  call void @Vec_StrFree(ptr noundef %20)
  %21 = load ptr, ptr %4, align 8, !tbaa !48
  %22 = load ptr, ptr %7, align 8, !tbaa !25
  call void @Wlc_SetNtk(ptr noundef %21, ptr noundef %22)
  %23 = load ptr, ptr %4, align 8, !tbaa !48
  %24 = load ptr, ptr %5, align 8, !tbaa !3
  %25 = call i32 @Cmd_CommandExecute(ptr noundef %23, ptr noundef %24)
  %26 = icmp ne i32 %25, 0
  br i1 %26, label %27, label %29

27:                                               ; preds = %2
  %28 = load ptr, ptr %5, align 8, !tbaa !3
  call void (i32, ptr, ...) @Abc_Print(i32 noundef 1, ptr noundef @.str.8, ptr noundef %28)
  store i32 0, ptr %3, align 4
  store i32 1, ptr %8, align 4
  br label %92

29:                                               ; preds = %2
  %30 = load ptr, ptr %4, align 8, !tbaa !48
  %31 = call i32 @Abc_FrameReadProbStatus(ptr noundef %30)
  %32 = icmp eq i32 %31, -1
  br i1 %32, label %33, label %35

33:                                               ; preds = %29
  %34 = call i32 (ptr, ...) @printf(ptr noundef @.str.9)
  br label %50

35:                                               ; preds = %29
  %36 = load ptr, ptr %4, align 8, !tbaa !48
  %37 = call i32 @Abc_FrameReadProbStatus(ptr noundef %36)
  %38 = icmp eq i32 %37, 1
  br i1 %38, label %39, label %41

39:                                               ; preds = %35
  %40 = call i32 (ptr, ...) @printf(ptr noundef @.str.10)
  br label %49

41:                                               ; preds = %35
  %42 = load ptr, ptr %4, align 8, !tbaa !48
  %43 = call i32 @Abc_FrameReadProbStatus(ptr noundef %42)
  %44 = icmp eq i32 %43, 0
  br i1 %44, label %45, label %47

45:                                               ; preds = %41
  %46 = call i32 (ptr, ...) @printf(ptr noundef @.str.11)
  br label %48

47:                                               ; preds = %41
  br label %48

48:                                               ; preds = %47, %45
  br label %49

49:                                               ; preds = %48, %39
  br label %50

50:                                               ; preds = %49, %33
  %51 = load ptr, ptr @stdout, align 8, !tbaa !42
  %52 = call i32 @fflush(ptr noundef %51)
  br label %53

53:                                               ; preds = %90, %50
  %54 = call ptr @Wlc_StdinCollectQuery()
  store ptr %54, ptr %6, align 8, !tbaa !15
  %55 = icmp ne ptr %54, null
  br i1 %55, label %56, label %91

56:                                               ; preds = %53
  call void @llvm.lifetime.start.p0(i64 8, ptr %9) #10
  %57 = load ptr, ptr %6, align 8, !tbaa !15
  %58 = call ptr @Vec_StrArray(ptr noundef %57)
  %59 = call ptr @strtok(ptr noundef %58, ptr noundef @.str.12) #10
  store ptr %59, ptr %9, align 8, !tbaa !3
  %60 = load ptr, ptr %9, align 8, !tbaa !3
  %61 = call i32 @strcmp(ptr noundef %60, ptr noundef @.str.13) #11
  %62 = icmp ne i32 %61, 0
  br i1 %62, label %63, label %65

63:                                               ; preds = %56
  call void (i32, ptr, ...) @Abc_Print(i32 noundef 1, ptr noundef @.str.14)
  %64 = load ptr, ptr %6, align 8, !tbaa !15
  call void @Vec_StrFree(ptr noundef %64)
  store i32 0, ptr %3, align 4
  store i32 1, ptr %8, align 4
  br label %88

65:                                               ; preds = %56
  %66 = load ptr, ptr %4, align 8, !tbaa !48
  %67 = call i32 @Abc_FrameReadProbStatus(ptr noundef %66)
  %68 = icmp ne i32 %67, 0
  br i1 %68, label %69, label %71

69:                                               ; preds = %65
  call void (i32, ptr, ...) @Abc_Print(i32 noundef 1, ptr noundef @.str.15)
  %70 = load ptr, ptr %6, align 8, !tbaa !15
  call void @Vec_StrFree(ptr noundef %70)
  store i32 0, ptr %3, align 4
  store i32 1, ptr %8, align 4
  br label %88

71:                                               ; preds = %65
  %72 = call ptr @strtok(ptr noundef null, ptr noundef @.str.16) #10
  store ptr %72, ptr %9, align 8, !tbaa !3
  %73 = load ptr, ptr %4, align 8, !tbaa !48
  %74 = call ptr @Abc_FrameReadCex(ptr noundef %73)
  %75 = icmp eq ptr %74, null
  br i1 %75, label %76, label %78

76:                                               ; preds = %71
  call void (i32, ptr, ...) @Abc_Print(i32 noundef 1, ptr noundef @.str.17)
  %77 = load ptr, ptr %6, align 8, !tbaa !15
  call void @Vec_StrFree(ptr noundef %77)
  store i32 0, ptr %3, align 4
  store i32 1, ptr %8, align 4
  br label %88

78:                                               ; preds = %71
  %79 = load ptr, ptr %4, align 8, !tbaa !48
  %80 = getelementptr inbounds nuw %struct.Abc_Frame_t_, ptr %79, i32 0, i32 71
  %81 = load ptr, ptr %80, align 8, !tbaa !50
  %82 = load ptr, ptr %4, align 8, !tbaa !48
  %83 = call ptr @Abc_FrameReadCex(ptr noundef %82)
  %84 = load ptr, ptr %9, align 8, !tbaa !3
  call void @Wlc_NtkReport(ptr noundef %81, ptr noundef %83, ptr noundef %84, i32 noundef 16)
  %85 = load ptr, ptr %6, align 8, !tbaa !15
  call void @Vec_StrFree(ptr noundef %85)
  %86 = load ptr, ptr @stdout, align 8, !tbaa !42
  %87 = call i32 @fflush(ptr noundef %86)
  store i32 0, ptr %8, align 4
  br label %88

88:                                               ; preds = %78, %76, %69, %63
  call void @llvm.lifetime.end.p0(i64 8, ptr %9) #10
  %89 = load i32, ptr %8, align 4
  switch i32 %89, label %92 [
    i32 0, label %90
  ]

90:                                               ; preds = %88
  br label %53, !llvm.loop !59

91:                                               ; preds = %53
  store i32 1, ptr %3, align 4
  store i32 1, ptr %8, align 4
  br label %92

92:                                               ; preds = %91, %88, %27
  call void @llvm.lifetime.end.p0(i64 8, ptr %7) #10
  call void @llvm.lifetime.end.p0(i64 8, ptr %6) #10
  %93 = load i32, ptr %3, align 4
  ret i32 %93
}