; Function Attrs: nounwind uwtable
define range(i32 0, 2) i32 @Wlc_StdinProcessSmt(ptr noundef %0, ptr noundef %1) local_unnamed_addr #2 {
  %3 = tail call ptr @Wlc_StdinCollectProblem(ptr noundef nonnull @.str.6)
  %4 = getelementptr i8, ptr %3, i64 8
  %.val32 = load ptr, ptr %4, align 8, !tbaa !13
  %5 = getelementptr i8, ptr %3, i64 4
  %.val33 = load i32, ptr %5, align 4, !tbaa !14
  %6 = sext i32 %.val33 to i64
  %7 = getelementptr inbounds i8, ptr %.val32, i64 %6
  %8 = tail call ptr @Wlc_ReadSmtBuffer(ptr noundef nonnull @.str.7, ptr noundef %.val32, ptr noundef %7, i32 noundef 0, i32 noundef 0) #17
  %.not.i = icmp eq ptr %.val32, null
  br i1 %.not.i, label %Vec_StrFree.exit, label %9

9:                                                ; preds = %2
  tail call void @free(ptr noundef nonnull %.val32) #17
  br label %Vec_StrFree.exit

Vec_StrFree.exit:                                 ; preds = %2, %9
  tail call void @free(ptr noundef nonnull %3) #17
  tail call void @Wlc_SetNtk(ptr noundef %0, ptr noundef %8) #17
  %10 = tail call i32 @Cmd_CommandExecute(ptr noundef %0, ptr noundef %1) #17
  %.not = icmp eq i32 %10, 0
  br i1 %.not, label %12, label %11

11:                                               ; preds = %Vec_StrFree.exit
  tail call void (i32, ptr, ...) @Abc_Print(i32 poison, ptr noundef nonnull @.str.8, ptr noundef %1)
  br label %.critedge

12:                                               ; preds = %Vec_StrFree.exit
  %13 = tail call i32 @Abc_FrameReadProbStatus(ptr noundef %0) #17
  %14 = icmp eq i32 %13, -1
  br i1 %14, label %.sink.split, label %15

15:                                               ; preds = %12
  %16 = tail call i32 @Abc_FrameReadProbStatus(ptr noundef %0) #17
  %17 = icmp eq i32 %16, 1
  br i1 %17, label %.sink.split, label %18

18:                                               ; preds = %15
  %19 = tail call i32 @Abc_FrameReadProbStatus(ptr noundef %0) #17
  %20 = icmp eq i32 %19, 0
  br i1 %20, label %.sink.split, label %21

.sink.split:                                      ; preds = %18, %15, %12
  %str.1.sink = phi ptr [ @str.2, %12 ], [ @str.1, %15 ], [ @str, %18 ]
  %puts26 = tail call i32 @puts(ptr nonnull dereferenceable(1) %str.1.sink)
  br label %21

21:                                               ; preds = %.sink.split, %18
  %22 = load ptr, ptr @stdout, align 8, !tbaa !33
  %23 = tail call i32 @fflush(ptr noundef %22)
  %24 = tail call ptr @Wlc_StdinCollectQuery()
  %.not2847 = icmp eq ptr %24, null
  br i1 %.not2847, label %.critedge, label %.lr.ph

.lr.ph:                                           ; preds = %21
  %25 = getelementptr inbounds nuw i8, ptr %0, i64 504
  br label %26

26:                                               ; preds = %.lr.ph, %Vec_StrFree.exit41
  %27 = phi ptr [ %24, %.lr.ph ], [ %49, %Vec_StrFree.exit41 ]
  %28 = getelementptr i8, ptr %27, i64 8
  %.val = load ptr, ptr %28, align 8, !tbaa !13
  %29 = tail call ptr @strtok(ptr noundef %.val, ptr noundef nonnull @.str.12) #17
  %30 = tail call i32 @strcmp(ptr noundef nonnull dereferenceable(1) %29, ptr noundef nonnull dereferenceable(10) @.str.13) #19
  %.not29 = icmp eq i32 %30, 0
  br i1 %.not29, label %33, label %31

31:                                               ; preds = %26
  tail call void (i32, ptr, ...) @Abc_Print(i32 poison, ptr noundef nonnull @.str.14)
  %.not.i34 = icmp eq ptr %.val, null
  br i1 %.not.i34, label %Vec_StrFree.exit35, label %32

32:                                               ; preds = %31
  tail call void @free(ptr noundef nonnull %.val) #17
  br label %Vec_StrFree.exit35

Vec_StrFree.exit35:                               ; preds = %31, %32
  tail call void @free(ptr noundef nonnull %27) #17
  br label %.critedge

33:                                               ; preds = %26
  %34 = tail call i32 @Abc_FrameReadProbStatus(ptr noundef %0) #17
  %.not30 = icmp eq i32 %34, 0
  br i1 %.not30, label %37, label %35

35:                                               ; preds = %33
  tail call void (i32, ptr, ...) @Abc_Print(i32 poison, ptr noundef nonnull @.str.15)
  %.not.i36 = icmp eq ptr %.val, null
  br i1 %.not.i36, label %Vec_StrFree.exit37, label %36

36:                                               ; preds = %35
  tail call void @free(ptr noundef nonnull %.val) #17
  br label %Vec_StrFree.exit37

Vec_StrFree.exit37:                               ; preds = %35, %36
  tail call void @free(ptr noundef nonnull %27) #17
  br label %.critedge

37:                                               ; preds = %33
  %38 = tail call ptr @strtok(ptr noundef null, ptr noundef nonnull @.str.16) #17
  %39 = tail call ptr @Abc_FrameReadCex(ptr noundef %0) #17
  %40 = icmp eq ptr %39, null
  br i1 %40, label %41, label %43

41:                                               ; preds = %37
  tail call void (i32, ptr, ...) @Abc_Print(i32 poison, ptr noundef nonnull @.str.17)
  %.not.i38 = icmp eq ptr %.val, null
  br i1 %.not.i38, label %Vec_StrFree.exit39, label %42

42:                                               ; preds = %41
  tail call void @free(ptr noundef nonnull %.val) #17
  br label %Vec_StrFree.exit39

Vec_StrFree.exit39:                               ; preds = %41, %42
  tail call void @free(ptr noundef nonnull %27) #17
  br label %.critedge

43:                                               ; preds = %37
  %44 = load ptr, ptr %25, align 8, !tbaa !37
  %45 = tail call ptr @Abc_FrameReadCex(ptr noundef %0) #17
  tail call void @Wlc_NtkReport(ptr noundef %44, ptr noundef %45, ptr noundef %38, i32 noundef 16)
  %.not.i40 = icmp eq ptr %.val, null
  br i1 %.not.i40, label %Vec_StrFree.exit41, label %46

46:                                               ; preds = %43
  tail call void @free(ptr noundef nonnull %.val) #17
  br label %Vec_StrFree.exit41

Vec_StrFree.exit41:                               ; preds = %43, %46
  tail call void @free(ptr noundef nonnull %27) #17
  %47 = load ptr, ptr @stdout, align 8, !tbaa !33
  %48 = tail call i32 @fflush(ptr noundef %47)
  %49 = tail call ptr @Wlc_StdinCollectQuery()
  %.not28 = icmp eq ptr %49, null
  br i1 %.not28, label %.critedge, label %26, !llvm.loop !47

.critedge:                                        ; preds = %Vec_StrFree.exit41, %21, %Vec_StrFree.exit35, %Vec_StrFree.exit37, %Vec_StrFree.exit39, %11
  %.024 = phi i32 [ 0, %11 ], [ 0, %Vec_StrFree.exit39 ], [ 0, %Vec_StrFree.exit37 ], [ 0, %Vec_StrFree.exit35 ], [ 1, %21 ], [ 1, %Vec_StrFree.exit41 ]
  ret i32 %.024
}